target datalayout = "e-m:e-p270:32:32-p271:32:32-p272:64:64-i64:64-i128:128-f80:128-n8:16:32:64-S128"
target triple = "x86_64-unknown-linux-gnu"

%"class.net::QuicConfigValue" = type { ptr, i32, i32 }
%"class.net::QuicNegotiableUint32" = type { %"class.net::QuicNegotiableValue.base", i32, i32, i32 }
%"class.net::QuicNegotiableValue.base" = type <{ %"class.net::QuicConfigValue", i8 }>
%"class.std::vector" = type { %"struct.std::_Vector_base" }
%"struct.std::_Vector_base" = type { %"struct.std::_Vector_base<unsigned int, std::allocator<unsigned int>>::_Vector_impl" }
%"struct.std::_Vector_base<unsigned int, std::allocator<unsigned int>>::_Vector_impl" = type { %"struct.std::_Vector_base<unsigned int, std::allocator<unsigned int>>::_Vector_impl_data" }
%"struct.std::_Vector_base<unsigned int, std::allocator<unsigned int>>::_Vector_impl_data" = type { ptr, ptr, ptr }
%"class.net::QuicFixedUint32" = type <{ %"class.net::QuicConfigValue", i32, i8, [3 x i8], i32, i8, [3 x i8] }>
%"class.net::QuicFixedTagVector" = type <{ %"class.net::QuicConfigValue", %"class.std::vector", i8, [7 x i8], %"class.std::vector", i8, [7 x i8] }>
%"class.net::QuicFixedIPEndPoint" = type <{ %"class.net::QuicConfigValue", %"class.net::IPEndPoint", i8, [7 x i8], %"class.net::IPEndPoint", i8, [7 x i8] }>
%"class.net::IPEndPoint" = type <{ %"class.net::IPAddress", i16, [6 x i8] }>
%"class.net::IPAddress" = type { %"class.std::vector.8" }
%"class.std::vector.8" = type { %"struct.std::_Vector_base.9" }
%"struct.std::_Vector_base.9" = type { %"struct.std::_Vector_base<unsigned char, std::allocator<unsigned char>>::_Vector_impl" }
%"struct.std::_Vector_base<unsigned char, std::allocator<unsigned char>>::_Vector_impl" = type { %"struct.std::_Vector_base<unsigned char, std::allocator<unsigned char>>::_Vector_impl_data" }
%"struct.std::_Vector_base<unsigned char, std::allocator<unsigned char>>::_Vector_impl_data" = type { ptr, ptr, ptr }
%"class.net::QuicConfig" = type { %"class.net::QuicTime::Delta", %"class.net::QuicTime::Delta", i64, %"class.net::QuicFixedTagVector", %"class.net::QuicNegotiableUint32", %"class.net::QuicNegotiableUint32", %"class.net::QuicNegotiableUint32", %"class.net::QuicFixedUint32", %"class.net::QuicFixedUint32", %"class.net::QuicFixedUint32", %"class.net::QuicFixedUint32", %"class.net::QuicFixedUint32", %"class.net::QuicFixedUint32", %"class.net::QuicNegotiableUint32", %"class.net::QuicFixedUint32", %"class.net::QuicFixedIPEndPoint", %"class.net::QuicFixedUint32" }
%"class.net::QuicTime::Delta" = type { %"class.base::TimeDelta", i64 }
%"class.base::TimeDelta" = type { i64 }

; Function Attrs: mustprogress uwtable
define dso_local noundef i32 @_ZN3net10QuicConfig16ProcessPeerHelloERKNS_22CryptoHandshakeMessageENS_9HelloTypeEPNSt7__cxx1112basic_stringIcSt11char_traitsIcESaIcEEE(ptr noundef nonnull align 8 dereferenceable(600) %this, ptr noundef nonnull align 8 dereferenceable(72) %peer_hello, i32 noundef %hello_type, ptr noundef %error_details) #0 align 2 {
entry:
  %this.addr = alloca ptr, align 8
  %peer_hello.addr = alloca ptr, align 8
  %hello_type.addr = alloca i32, align 4
  %error_details.addr = alloca ptr, align 8
  %error = alloca i32, align 4
  store ptr %this, ptr %this.addr, align 8
  store ptr %peer_hello, ptr %peer_hello.addr, align 8
  store i32 %hello_type, ptr %hello_type.addr, align 4
  store ptr %error_details, ptr %error_details.addr, align 8
  %this1 = load ptr, ptr %this.addr, align 8
  store i32 0, ptr %error, align 4
  %0 = load i32, ptr %error, align 4
  %cmp = icmp eq i32 %0, 0
  br i1 %cmp, label %if.then, label %if.end

if.then:                                          ; preds = %entry
  %idle_connection_state_lifetime_seconds_ = getelementptr inbounds %"class.net::QuicConfig", ptr %this1, i32 0, i32 4
  %1 = load ptr, ptr %peer_hello.addr, align 8
  %2 = load i32, ptr %hello_type.addr, align 4
  %3 = load ptr, ptr %error_details.addr, align 8
  %call = call noundef i32 @_ZN3net20QuicNegotiableUint3216ProcessPeerHelloERKNS_22CryptoHandshakeMessageENS_9HelloTypeEPNSt7__cxx1112basic_stringIcSt11char_traitsIcESaIcEEE(ptr noundef nonnull align 8 dereferenceable(32) %idle_connection_state_lifetime_seconds_, ptr noundef nonnull align 8 dereferenceable(72) %1, i32 noundef %2, ptr noundef %3)
  store i32 %call, ptr %error, align 4
  br label %if.end

if.end:                                           ; preds = %if.then, %entry
  %4 = load i32, ptr %error, align 4
  %cmp2 = icmp eq i32 %4, 0
  br i1 %cmp2, label %if.then3, label %if.end5

if.then3:                                         ; preds = %if.end
  %silent_close_ = getelementptr inbounds %"class.net::QuicConfig", ptr %this1, i32 0, i32 5
  %5 = load ptr, ptr %peer_hello.addr, align 8
  %6 = load i32, ptr %hello_type.addr, align 4
  %7 = load ptr, ptr %error_details.addr, align 8
  %call4 = call noundef i32 @_ZN3net20QuicNegotiableUint3216ProcessPeerHelloERKNS_22CryptoHandshakeMessageENS_9HelloTypeEPNSt7__cxx1112basic_stringIcSt11char_traitsIcESaIcEEE(ptr noundef nonnull align 8 dereferenceable(32) %silent_close_, ptr noundef nonnull align 8 dereferenceable(72) %5, i32 noundef %6, ptr noundef %7)
  store i32 %call4, ptr %error, align 4
  br label %if.end5

if.end5:                                          ; preds = %if.then3, %if.end
  %8 = load i32, ptr %error, align 4
  %cmp6 = icmp eq i32 %8, 0
  br i1 %cmp6, label %if.then7, label %if.end9

if.then7:                                         ; preds = %if.end5
  %max_streams_per_connection_ = getelementptr inbounds %"class.net::QuicConfig", ptr %this1, i32 0, i32 6
  %9 = load ptr, ptr %peer_hello.addr, align 8
  %10 = load i32, ptr %hello_type.addr, align 4
  %11 = load ptr, ptr %error_details.addr, align 8
  %call8 = call noundef i32 @_ZN3net20QuicNegotiableUint3216ProcessPeerHelloERKNS_22CryptoHandshakeMessageENS_9HelloTypeEPNSt7__cxx1112basic_stringIcSt11char_traitsIcESaIcEEE(ptr noundef nonnull align 8 dereferenceable(32) %max_streams_per_connection_, ptr noundef nonnull align 8 dereferenceable(72) %9, i32 noundef %10, ptr noundef %11)
  store i32 %call8, ptr %error, align 4
  br label %if.end9

if.end9:                                          ; preds = %if.then7, %if.end5
  %12 = load i32, ptr %error, align 4
  %cmp10 = icmp eq i32 %12, 0
  br i1 %cmp10, label %if.then11, label %if.end13

if.then11:                                        ; preds = %if.end9
  %max_incoming_dynamic_streams_ = getelementptr inbounds %"class.net::QuicConfig", ptr %this1, i32 0, i32 7
  %13 = load ptr, ptr %peer_hello.addr, align 8
  %14 = load i32, ptr %hello_type.addr, align 4
  %15 = load ptr, ptr %error_details.addr, align 8
  %call12 = call noundef i32 @_ZN3net15QuicFixedUint3216ProcessPeerHelloERKNS_22CryptoHandshakeMessageENS_9HelloTypeEPNSt7__cxx1112basic_stringIcSt11char_traitsIcESaIcEEE(ptr noundef nonnull align 8 dereferenceable(29) %max_incoming_dynamic_streams_, ptr noundef nonnull align 8 dereferenceable(72) %13, i32 noundef %14, ptr noundef %15)
  store i32 %call12, ptr %error, align 4
  br label %if.end13

if.end13:                                         ; preds = %if.then11, %if.end9
  %16 = load i32, ptr %error, align 4
  %cmp14 = icmp eq i32 %16, 0
  br i1 %cmp14, label %if.then15, label %if.end17

if.then15:                                        ; preds = %if.end13
  %bytes_for_connection_id_ = getelementptr inbounds %"class.net::QuicConfig", ptr %this1, i32 0, i32 8
  %17 = load ptr, ptr %peer_hello.addr, align 8
  %18 = load i32, ptr %hello_type.addr, align 4
  %19 = load ptr, ptr %error_details.addr, align 8
  %call16 = call noundef i32 @_ZN3net15QuicFixedUint3216ProcessPeerHelloERKNS_22CryptoHandshakeMessageENS_9HelloTypeEPNSt7__cxx1112basic_stringIcSt11char_traitsIcESaIcEEE(ptr noundef nonnull align 8 dereferenceable(29) %bytes_for_connection_id_, ptr noundef nonnull align 8 dereferenceable(72) %17, i32 noundef %18, ptr noundef %19)
  store i32 %call16, ptr %error, align 4
  br label %if.end17

if.end17:                                         ; preds = %if.then15, %if.end13
  %20 = load i32, ptr %error, align 4
  %cmp18 = icmp eq i32 %20, 0
  br i1 %cmp18, label %if.then19, label %if.end21

if.then19:                                        ; preds = %if.end17
  %initial_round_trip_time_us_ = getelementptr inbounds %"class.net::QuicConfig", ptr %this1, i32 0, i32 9
  %21 = load ptr, ptr %peer_hello.addr, align 8
  %22 = load i32, ptr %hello_type.addr, align 4
  %23 = load ptr, ptr %error_details.addr, align 8
  %call20 = call noundef i32 @_ZN3net15QuicFixedUint3216ProcessPeerHelloERKNS_22CryptoHandshakeMessageENS_9HelloTypeEPNSt7__cxx1112basic_stringIcSt11char_traitsIcESaIcEEE(ptr noundef nonnull align 8 dereferenceable(29) %initial_round_trip_time_us_, ptr noundef nonnull align 8 dereferenceable(72) %21, i32 noundef %22, ptr noundef %23)
  store i32 %call20, ptr %error, align 4
  br label %if.end21

if.end21:                                         ; preds = %if.then19, %if.end17
  %24 = load i32, ptr %error, align 4
  %cmp22 = icmp eq i32 %24, 0
  br i1 %cmp22, label %if.then23, label %if.end25

if.then23:                                        ; preds = %if.end21
  %initial_stream_flow_control_window_bytes_ = getelementptr inbounds %"class.net::QuicConfig", ptr %this1, i32 0, i32 10
  %25 = load ptr, ptr %peer_hello.addr, align 8
  %26 = load i32, ptr %hello_type.addr, align 4
  %27 = load ptr, ptr %error_details.addr, align 8
  %call24 = call noundef i32 @_ZN3net15QuicFixedUint3216ProcessPeerHelloERKNS_22CryptoHandshakeMessageENS_9HelloTypeEPNSt7__cxx1112basic_stringIcSt11char_traitsIcESaIcEEE(ptr noundef nonnull align 8 dereferenceable(29) %initial_stream_flow_control_window_bytes_, ptr noundef nonnull align 8 dereferenceable(72) %25, i32 noundef %26, ptr noundef %27)
  store i32 %call24, ptr %error, align 4
  br label %if.end25

if.end25:                                         ; preds = %if.then23, %if.end21
  %28 = load i32, ptr %error, align 4
  %cmp26 = icmp eq i32 %28, 0
  br i1 %cmp26, label %if.then27, label %if.end29

if.then27:                                        ; preds = %if.end25
  %initial_session_flow_control_window_bytes_ = getelementptr inbounds %"class.net::QuicConfig", ptr %this1, i32 0, i32 11
  %29 = load ptr, ptr %peer_hello.addr, align 8
  %30 = load i32, ptr %hello_type.addr, align 4
  %31 = load ptr, ptr %error_details.addr, align 8
  %call28 = call noundef i32 @_ZN3net15QuicFixedUint3216ProcessPeerHelloERKNS_22CryptoHandshakeMessageENS_9HelloTypeEPNSt7__cxx1112basic_stringIcSt11char_traitsIcESaIcEEE(ptr noundef nonnull align 8 dereferenceable(29) %initial_session_flow_control_window_bytes_, ptr noundef nonnull align 8 dereferenceable(72) %29, i32 noundef %30, ptr noundef %31)
  store i32 %call28, ptr %error, align 4
  br label %if.end29

if.end29:                                         ; preds = %if.then27, %if.end25
  %32 = load i32, ptr %error, align 4
  %cmp30 = icmp eq i32 %32, 0
  br i1 %cmp30, label %if.then31, label %if.end33

if.then31:                                        ; preds = %if.end29
  %socket_receive_buffer_ = getelementptr inbounds %"class.net::QuicConfig", ptr %this1, i32 0, i32 12
  %33 = load ptr, ptr %peer_hello.addr, align 8
  %34 = load i32, ptr %hello_type.addr, align 4
  %35 = load ptr, ptr %error_details.addr, align 8
  %call32 = call noundef i32 @_ZN3net15QuicFixedUint3216ProcessPeerHelloERKNS_22CryptoHandshakeMessageENS_9HelloTypeEPNSt7__cxx1112basic_stringIcSt11char_traitsIcESaIcEEE(ptr noundef nonnull align 8 dereferenceable(29) %socket_receive_buffer_, ptr noundef nonnull align 8 dereferenceable(72) %33, i32 noundef %34, ptr noundef %35)
  store i32 %call32, ptr %error, align 4
  br label %if.end33

if.end33:                                         ; preds = %if.then31, %if.end29
  %36 = load i32, ptr %error, align 4
  %cmp34 = icmp eq i32 %36, 0
  br i1 %cmp34, label %if.then35, label %if.end37

if.then35:                                        ; preds = %if.end33
  %connection_migration_disabled_ = getelementptr inbounds %"class.net::QuicConfig", ptr %this1, i32 0, i32 14
  %37 = load ptr, ptr %peer_hello.addr, align 8
  %38 = load i32, ptr %hello_type.addr, align 4
  %39 = load ptr, ptr %error_details.addr, align 8
  %call36 = call noundef i32 @_ZN3net15QuicFixedUint3216ProcessPeerHelloERKNS_22CryptoHandshakeMessageENS_9HelloTypeEPNSt7__cxx1112basic_stringIcSt11char_traitsIcESaIcEEE(ptr noundef nonnull align 8 dereferenceable(29) %connection_migration_disabled_, ptr noundef nonnull align 8 dereferenceable(72) %37, i32 noundef %38, ptr noundef %39)
  store i32 %call36, ptr %error, align 4
  br label %if.end37

if.end37:                                         ; preds = %if.then35, %if.end33
  %40 = load i32, ptr %error, align 4
  %cmp38 = icmp eq i32 %40, 0
  br i1 %cmp38, label %if.then39, label %if.end41

if.then39:                                        ; preds = %if.end37
  %connection_options_ = getelementptr inbounds %"class.net::QuicConfig", ptr %this1, i32 0, i32 3
  %41 = load ptr, ptr %peer_hello.addr, align 8
  %42 = load i32, ptr %hello_type.addr, align 4
  %43 = load ptr, ptr %error_details.addr, align 8
  %call40 = call noundef i32 @_ZN3net18QuicFixedTagVector16ProcessPeerHelloERKNS_22CryptoHandshakeMessageENS_9HelloTypeEPNSt7__cxx1112basic_stringIcSt11char_traitsIcESaIcEEE(ptr noundef nonnull align 8 dereferenceable(73) %connection_options_, ptr noundef nonnull align 8 dereferenceable(72) %41, i32 noundef %42, ptr noundef %43)
  store i32 %call40, ptr %error, align 4
  br label %if.end41

if.end41:                                         ; preds = %if.then39, %if.end37
  %44 = load i32, ptr %error, align 4
  %cmp42 = icmp eq i32 %44, 0
  br i1 %cmp42, label %if.then43, label %if.end45

if.then43:                                        ; preds = %if.end41
  %alternate_server_address_ = getelementptr inbounds %"class.net::QuicConfig", ptr %this1, i32 0, i32 15
  %45 = load ptr, ptr %peer_hello.addr, align 8
  %46 = load i32, ptr %hello_type.addr, align 4
  %47 = load ptr, ptr %error_details.addr, align 8
  %call44 = call noundef i32 @_ZN3net19QuicFixedIPEndPoint16ProcessPeerHelloERKNS_22CryptoHandshakeMessageENS_9HelloTypeEPNSt7__cxx1112basic_stringIcSt11char_traitsIcESaIcEEE(ptr noundef nonnull align 8 dereferenceable(89) %alternate_server_address_, ptr noundef nonnull align 8 dereferenceable(72) %45, i32 noundef %46, ptr noundef %47)
  store i32 %call44, ptr %error, align 4
  br label %if.end45

if.end45:                                         ; preds = %if.then43, %if.end41
  %48 = load i32, ptr %error, align 4
  %cmp46 = icmp eq i32 %48, 0
  br i1 %cmp46, label %if.then47, label %if.end49

if.then47:                                        ; preds = %if.end45
  %force_hol_blocking_ = getelementptr inbounds %"class.net::QuicConfig", ptr %this1, i32 0, i32 16
  %49 = load ptr, ptr %peer_hello.addr, align 8
  %50 = load i32, ptr %hello_type.addr, align 4
  %51 = load ptr, ptr %error_details.addr, align 8
  %call48 = call noundef i32 @_ZN3net15QuicFixedUint3216ProcessPeerHelloERKNS_22CryptoHandshakeMessageENS_9HelloTypeEPNSt7__cxx1112basic_stringIcSt11char_traitsIcESaIcEEE(ptr noundef nonnull align 8 dereferenceable(29) %force_hol_blocking_, ptr noundef nonnull align 8 dereferenceable(72) %49, i32 noundef %50, ptr noundef %51)
  store i32 %call48, ptr %error, align 4
  br label %if.end49

if.end49:                                         ; preds = %if.then47, %if.end45
  %52 = load i32, ptr %error, align 4
  ret i32 %52
}