; Function Attrs: mustprogress uwtable
define dso_local noundef i32 @_ZN3net10QuicConfig16ProcessPeerHelloERKNS_22CryptoHandshakeMessageENS_9HelloTypeEPNSt7__cxx1112basic_stringIcSt11char_traitsIcESaIcEEE(ptr noundef nonnull align 8 dereferenceable(600) %this, ptr noundef nonnull align 8 dereferenceable(72) %peer_hello, i32 noundef %hello_type, ptr noundef %error_details) local_unnamed_addr #0 align 2 {
entry:
  %idle_connection_state_lifetime_seconds_ = getelementptr inbounds i8, ptr %this, i64 120
  %call = tail call noundef i32 @_ZN3net20QuicNegotiableUint3216ProcessPeerHelloERKNS_22CryptoHandshakeMessageENS_9HelloTypeEPNSt7__cxx1112basic_stringIcSt11char_traitsIcESaIcEEE(ptr noundef nonnull align 8 dereferenceable(32) %idle_connection_state_lifetime_seconds_, ptr noundef nonnull align 8 dereferenceable(72) %peer_hello, i32 noundef %hello_type, ptr noundef %error_details)
  %cmp2 = icmp eq i32 %call, 0
  br i1 %cmp2, label %if.end5, label %if.end49

if.end5:                                          ; preds = %entry
  %silent_close_ = getelementptr inbounds i8, ptr %this, i64 152
  %call4 = tail call noundef i32 @_ZN3net20QuicNegotiableUint3216ProcessPeerHelloERKNS_22CryptoHandshakeMessageENS_9HelloTypeEPNSt7__cxx1112basic_stringIcSt11char_traitsIcESaIcEEE(ptr noundef nonnull align 8 dereferenceable(32) %silent_close_, ptr noundef nonnull align 8 dereferenceable(72) %peer_hello, i32 noundef %hello_type, ptr noundef %error_details)
  %cmp6 = icmp eq i32 %call4, 0
  br i1 %cmp6, label %if.end9, label %if.end49

if.end9:                                          ; preds = %if.end5
  %max_streams_per_connection_ = getelementptr inbounds i8, ptr %this, i64 184
  %call8 = tail call noundef i32 @_ZN3net20QuicNegotiableUint3216ProcessPeerHelloERKNS_22CryptoHandshakeMessageENS_9HelloTypeEPNSt7__cxx1112basic_stringIcSt11char_traitsIcESaIcEEE(ptr noundef nonnull align 8 dereferenceable(32) %max_streams_per_connection_, ptr noundef nonnull align 8 dereferenceable(72) %peer_hello, i32 noundef %hello_type, ptr noundef %error_details)
  %cmp10 = icmp eq i32 %call8, 0
  br i1 %cmp10, label %if.end13, label %if.end49

if.end13:                                         ; preds = %if.end9
  %max_incoming_dynamic_streams_ = getelementptr inbounds i8, ptr %this, i64 216
  %call12 = tail call noundef i32 @_ZN3net15QuicFixedUint3216ProcessPeerHelloERKNS_22CryptoHandshakeMessageENS_9HelloTypeEPNSt7__cxx1112basic_stringIcSt11char_traitsIcESaIcEEE(ptr noundef nonnull align 8 dereferenceable(29) %max_incoming_dynamic_streams_, ptr noundef nonnull align 8 dereferenceable(72) %peer_hello, i32 poison, ptr noundef %error_details)
  %cmp14 = icmp eq i32 %call12, 0
  br i1 %cmp14, label %if.end17, label %if.end49

if.end17:                                         ; preds = %if.end13
  %bytes_for_connection_id_ = getelementptr inbounds i8, ptr %this, i64 248
  %call16 = tail call noundef i32 @_ZN3net15QuicFixedUint3216ProcessPeerHelloERKNS_22CryptoHandshakeMessageENS_9HelloTypeEPNSt7__cxx1112basic_stringIcSt11char_traitsIcESaIcEEE(ptr noundef nonnull align 8 dereferenceable(29) %bytes_for_connection_id_, ptr noundef nonnull align 8 dereferenceable(72) %peer_hello, i32 poison, ptr noundef %error_details)
  %cmp18 = icmp eq i32 %call16, 0
  br i1 %cmp18, label %if.end21, label %if.end49

if.end21:                                         ; preds = %if.end17
  %initial_round_trip_time_us_ = getelementptr inbounds i8, ptr %this, i64 280
  %call20 = tail call noundef i32 @_ZN3net15QuicFixedUint3216ProcessPeerHelloERKNS_22CryptoHandshakeMessageENS_9HelloTypeEPNSt7__cxx1112basic_stringIcSt11char_traitsIcESaIcEEE(ptr noundef nonnull align 8 dereferenceable(29) %initial_round_trip_time_us_, ptr noundef nonnull align 8 dereferenceable(72) %peer_hello, i32 poison, ptr noundef %error_details)
  %cmp22 = icmp eq i32 %call20, 0
  br i1 %cmp22, label %if.end25, label %if.end49

if.end25:                                         ; preds = %if.end21
  %initial_stream_flow_control_window_bytes_ = getelementptr inbounds i8, ptr %this, i64 312
  %call24 = tail call noundef i32 @_ZN3net15QuicFixedUint3216ProcessPeerHelloERKNS_22CryptoHandshakeMessageENS_9HelloTypeEPNSt7__cxx1112basic_stringIcSt11char_traitsIcESaIcEEE(ptr noundef nonnull align 8 dereferenceable(29) %initial_stream_flow_control_window_bytes_, ptr noundef nonnull align 8 dereferenceable(72) %peer_hello, i32 poison, ptr noundef %error_details)
  %cmp26 = icmp eq i32 %call24, 0
  br i1 %cmp26, label %if.end29, label %if.end49

if.end29:                                         ; preds = %if.end25
  %initial_session_flow_control_window_bytes_ = getelementptr inbounds i8, ptr %this, i64 344
  %call28 = tail call noundef i32 @_ZN3net15QuicFixedUint3216ProcessPeerHelloERKNS_22CryptoHandshakeMessageENS_9HelloTypeEPNSt7__cxx1112basic_stringIcSt11char_traitsIcESaIcEEE(ptr noundef nonnull align 8 dereferenceable(29) %initial_session_flow_control_window_bytes_, ptr noundef nonnull align 8 dereferenceable(72) %peer_hello, i32 poison, ptr noundef %error_details)
  %cmp30 = icmp eq i32 %call28, 0
  br i1 %cmp30, label %if.end33, label %if.end49

if.end33:                                         ; preds = %if.end29
  %socket_receive_buffer_ = getelementptr inbounds i8, ptr %this, i64 376
  %call32 = tail call noundef i32 @_ZN3net15QuicFixedUint3216ProcessPeerHelloERKNS_22CryptoHandshakeMessageENS_9HelloTypeEPNSt7__cxx1112basic_stringIcSt11char_traitsIcESaIcEEE(ptr noundef nonnull align 8 dereferenceable(29) %socket_receive_buffer_, ptr noundef nonnull align 8 dereferenceable(72) %peer_hello, i32 poison, ptr noundef %error_details)
  %cmp34 = icmp eq i32 %call32, 0
  br i1 %cmp34, label %if.end37, label %if.end49

if.end37:                                         ; preds = %if.end33
  %connection_migration_disabled_ = getelementptr inbounds i8, ptr %this, i64 440
  %call36 = tail call noundef i32 @_ZN3net15QuicFixedUint3216ProcessPeerHelloERKNS_22CryptoHandshakeMessageENS_9HelloTypeEPNSt7__cxx1112basic_stringIcSt11char_traitsIcESaIcEEE(ptr noundef nonnull align 8 dereferenceable(29) %connection_migration_disabled_, ptr noundef nonnull align 8 dereferenceable(72) %peer_hello, i32 poison, ptr noundef %error_details)
  %cmp38 = icmp eq i32 %call36, 0
  br i1 %cmp38, label %if.end41, label %if.end49

if.end41:                                         ; preds = %if.end37
  %connection_options_ = getelementptr inbounds i8, ptr %this, i64 40
  %call40 = tail call noundef i32 @_ZN3net18QuicFixedTagVector16ProcessPeerHelloERKNS_22CryptoHandshakeMessageENS_9HelloTypeEPNSt7__cxx1112basic_stringIcSt11char_traitsIcESaIcEEE(ptr noundef nonnull align 8 dereferenceable(73) %connection_options_, ptr noundef nonnull align 8 dereferenceable(72) %peer_hello, i32 poison, ptr noundef %error_details)
  %cmp42 = icmp eq i32 %call40, 0
  br i1 %cmp42, label %if.end45, label %if.end49

if.end45:                                         ; preds = %if.end41
  %alternate_server_address_ = getelementptr inbounds i8, ptr %this, i64 472
  %call44 = tail call noundef i32 @_ZN3net19QuicFixedIPEndPoint16ProcessPeerHelloERKNS_22CryptoHandshakeMessageENS_9HelloTypeEPNSt7__cxx1112basic_stringIcSt11char_traitsIcESaIcEEE(ptr noundef nonnull align 8 dereferenceable(89) %alternate_server_address_, ptr noundef nonnull align 8 dereferenceable(72) %peer_hello, i32 poison, ptr noundef %error_details), !range !8
  %cmp46 = icmp eq i32 %call44, 0
  br i1 %cmp46, label %if.then47, label %if.end49

if.then47:                                        ; preds = %if.end45
  %force_hol_blocking_ = getelementptr inbounds i8, ptr %this, i64 568
  %call48 = tail call noundef i32 @_ZN3net15QuicFixedUint3216ProcessPeerHelloERKNS_22CryptoHandshakeMessageENS_9HelloTypeEPNSt7__cxx1112basic_stringIcSt11char_traitsIcESaIcEEE(ptr noundef nonnull align 8 dereferenceable(29) %force_hol_blocking_, ptr noundef nonnull align 8 dereferenceable(72) %peer_hello, i32 poison, ptr noundef %error_details)
  br label %if.end49

if.end49:                                         ; preds = %entry, %if.end5, %if.end9, %if.end13, %if.end17, %if.end21, %if.end25, %if.end29, %if.end33, %if.end37, %if.end41, %if.then47, %if.end45
  %error.12 = phi i32 [ %call48, %if.then47 ], [ %call44, %if.end45 ], [ %call40, %if.end41 ], [ %call36, %if.end37 ], [ %call32, %if.end33 ], [ %call28, %if.end29 ], [ %call24, %if.end25 ], [ %call20, %if.end21 ], [ %call16, %if.end17 ], [ %call12, %if.end13 ], [ %call8, %if.end9 ], [ %call4, %if.end5 ], [ %call, %entry ]
  ret i32 %error.12
}